; Function Attrs: mustprogress nofree norecurse nosync nounwind sspstrong willreturn memory(argmem: read) uwtable
define hidden range(i32 0, 2) i32 @FLAC__bitwriter_is_byte_aligned(ptr noundef readonly captures(none) %bw) local_unnamed_addr #10 {
entry:
  %bits = getelementptr inbounds nuw i8, ptr %bw, i64 24
  %0 = load i32, ptr %bits, align 8
  %and = and i32 %0, 7
  %cmp = icmp eq i32 %and, 0
  %conv = zext i1 %cmp to i32
  ret i32 %conv
}